; Function Attrs: nounwind uwtable
define hidden void @Curl_pgrsStartNow(ptr noundef captures(none) initializes((2896, 2908), (3120, 3124)) %0) local_unnamed_addr #0 {
  %2 = getelementptr inbounds nuw i8, ptr %0, i64 3120
  store i32 0, ptr %2, align 8, !tbaa !77
  %3 = getelementptr inbounds nuw i8, ptr %0, i64 2896
  %4 = tail call { i64, i32 } @Curl_now() #8
  %5 = extractvalue { i64, i32 } %4, 0
  %6 = extractvalue { i64, i32 } %4, 1
  store i64 %5, ptr %3, align 8, !tbaa !91
  %.sroa.4.0..sroa_idx = getelementptr inbounds nuw i8, ptr %0, i64 2904
  store i32 %6, ptr %.sroa.4.0..sroa_idx, align 8, !tbaa !97
  %7 = getelementptr inbounds nuw i8, ptr %0, i64 3124
  %8 = load i8, ptr %7, align 4
  %9 = and i8 %8, -3
  store i8 %9, ptr %7, align 4
  %10 = getelementptr inbounds nuw i8, ptr %0, i64 2728
  tail call void @llvm.memcpy.p0.p0.i64(ptr noundef nonnull align 8 dereferenceable(16) %10, ptr noundef nonnull align 8 dereferenceable(16) %3, i64 16, i1 false), !tbaa.struct !100
  %11 = getelementptr inbounds nuw i8, ptr %0, i64 2776
  tail call void @llvm.memcpy.p0.p0.i64(ptr noundef nonnull align 8 dereferenceable(16) %11, ptr noundef nonnull align 8 dereferenceable(16) %3, i64 16, i1 false), !tbaa.struct !100
  %12 = getelementptr inbounds nuw i8, ptr %0, i64 2744
  store i64 0, ptr %12, align 8, !tbaa !101
  %13 = getelementptr inbounds nuw i8, ptr %0, i64 2792
  store i64 0, ptr %13, align 8, !tbaa !102
  %14 = getelementptr inbounds nuw i8, ptr %0, i64 2760
  store i64 0, ptr %14, align 8, !tbaa !81
  %15 = getelementptr inbounds nuw i8, ptr %0, i64 2712
  store i64 0, ptr %15, align 8, !tbaa !83
  %16 = getelementptr inbounds nuw i8, ptr %0, i64 2820
  %17 = load i32, ptr %16, align 4, !tbaa !75
  %18 = and i32 %17, 144
  store i32 %18, ptr %16, align 4, !tbaa !75
  %19 = getelementptr inbounds nuw i8, ptr %0, i64 800
  %20 = load i64, ptr %19, align 8, !tbaa !103
  %.not.i = icmp eq i64 %20, 0
  br i1 %.not.i, label %29, label %21

21:                                               ; preds = %1
  %22 = load i64, ptr %11, align 8
  %23 = getelementptr inbounds nuw i8, ptr %0, i64 2784
  %24 = load i32, ptr %23, align 8
  %25 = tail call i64 @Curl_timediff(i64 %5, i32 %6, i64 %22, i32 %24) #8
  %26 = icmp sgt i64 %25, 2999
  br i1 %26, label %27, label %29

27:                                               ; preds = %21
  store i64 %5, ptr %11, align 8, !tbaa !91
  store i32 %6, ptr %23, align 8, !tbaa !97
  %28 = load i64, ptr %14, align 8, !tbaa !81
  store i64 %28, ptr %13, align 8, !tbaa !102
  br label %29

29:                                               ; preds = %27, %21, %1
  %30 = getelementptr inbounds nuw i8, ptr %0, i64 792
  %31 = load i64, ptr %30, align 8, !tbaa !104
  %.not17.i = icmp eq i64 %31, 0
  br i1 %.not17.i, label %Curl_ratelimit.exit, label %32

32:                                               ; preds = %29
  %33 = load i64, ptr %10, align 8
  %34 = getelementptr inbounds nuw i8, ptr %0, i64 2736
  %35 = load i32, ptr %34, align 8
  %36 = tail call i64 @Curl_timediff(i64 %5, i32 %6, i64 %33, i32 %35) #8
  %37 = icmp sgt i64 %36, 2999
  br i1 %37, label %38, label %Curl_ratelimit.exit

38:                                               ; preds = %32
  store i64 %5, ptr %10, align 8, !tbaa !91
  store i32 %6, ptr %34, align 8, !tbaa !97
  %39 = load i64, ptr %15, align 8, !tbaa !83
  store i64 %39, ptr %12, align 8, !tbaa !101
  br label %Curl_ratelimit.exit

Curl_ratelimit.exit:                              ; preds = %29, %32, %38
  ret void
}